target datalayout = "e-m:e-p270:32:32-p271:32:32-p272:64:64-i64:64-i128:128-f80:128-n8:16:32:64-S128"
target triple = "x86_64-pc-linux-gnu"

%union.pthread_mutex_t = type { %struct.__pthread_mutex_s }
%struct.__pthread_mutex_s = type { i32, i32, i32, i32, i32, i16, i16, %struct.__pthread_internal_list }
%struct.__pthread_internal_list = type { ptr, ptr }
%struct.___itt_global = type { [8 x i8], i64, i64, i64, i64, i64, i64, %union.pthread_mutex_t, ptr, ptr, ptr, ptr, ptr, ptr, ptr, ptr, i32, ptr, i32, ptr, ptr }
%struct.___itt_id = type { i64, i64, i64 }

@__itt_metadata_add_ptr__3_0 = hidden global ptr @__itt_metadata_add_init_3_0, align 8
@__itt_init_ittlib_ptr = internal global ptr @__itt_init_ittlib, align 8

; Function Attrs: nounwind uwtable
define internal void @__itt_metadata_add_init_3_0(ptr noundef %0, ptr noundef byval(%struct.___itt_id) align 8 %1, ptr noundef %2, i32 noundef %3, i64 noundef %4, ptr noundef %5) #0 {
  %7 = alloca ptr, align 8
  %8 = alloca ptr, align 8
  %9 = alloca i32, align 4
  %10 = alloca i64, align 8
  %11 = alloca ptr, align 8
  store ptr %0, ptr %7, align 8, !tbaa !27
  store ptr %2, ptr %8, align 8, !tbaa !28
  store i32 %3, ptr %9, align 4, !tbaa !24
  store i64 %4, ptr %10, align 8, !tbaa !25
  store ptr %5, ptr %11, align 8, !tbaa !21
  %12 = load volatile i64, ptr getelementptr inbounds nuw (%struct.___itt_global, ptr @__itt__ittapi_global, i32 0, i32 4), align 8, !tbaa !3
  %13 = icmp ne i64 %12, 0
  br i1 %13, label %20, label %14

14:                                               ; preds = %6
  %15 = load ptr, ptr getelementptr inbounds nuw (%struct.___itt_global, ptr @__itt__ittapi_global, i32 0, i32 13), align 8, !tbaa !20
  %16 = icmp eq ptr %15, null
  br i1 %16, label %17, label %20

17:                                               ; preds = %14
  %18 = load ptr, ptr @__itt_init_ittlib_ptr, align 8, !tbaa !21
  %19 = call i32 %18(ptr noundef null, i32 noundef -1)
  br label %20

20:                                               ; preds = %17, %14, %6
  %21 = load ptr, ptr @__itt_metadata_add_ptr__3_0, align 8, !tbaa !21
  %22 = icmp ne ptr %21, null
  br i1 %22, label %23, label %33

23:                                               ; preds = %20
  %24 = load ptr, ptr @__itt_metadata_add_ptr__3_0, align 8, !tbaa !21
  %25 = icmp ne ptr %24, @__itt_metadata_add_init_3_0
  br i1 %25, label %26, label %33

26:                                               ; preds = %23
  %27 = load ptr, ptr @__itt_metadata_add_ptr__3_0, align 8, !tbaa !21
  %28 = load ptr, ptr %7, align 8, !tbaa !27
  %29 = load ptr, ptr %8, align 8, !tbaa !28
  %30 = load i32, ptr %9, align 4, !tbaa !24
  %31 = load i64, ptr %10, align 8, !tbaa !25
  %32 = load ptr, ptr %11, align 8, !tbaa !21
  call void %27(ptr noundef %28, ptr noundef byval(%struct.___itt_id) align 8 %1, ptr noundef %29, i32 noundef %30, i64 noundef %31, ptr noundef %32)
  br label %34

33:                                               ; preds = %23, %20
  br label %34

34:                                               ; preds = %33, %26
  ret void
}