; Function Attrs: nounwind uwtable
define internal void @__itt_metadata_add_init_3_0(ptr noundef %0, ptr noundef readonly byval(%struct.___itt_id) align 8 captures(none) %1, ptr noundef %2, i32 noundef %3, i64 noundef %4, ptr noundef %5) #0 {
  %7 = load volatile i64, ptr getelementptr inbounds nuw (i8, ptr @__itt__ittapi_global, i64 32), align 8, !tbaa !3
  %8 = icmp eq i64 %7, 0
  %9 = load ptr, ptr getelementptr inbounds nuw (i8, ptr @__itt__ittapi_global, i64 136), align 8
  %10 = icmp eq ptr %9, null
  %or.cond = select i1 %8, i1 %10, i1 false
  br i1 %or.cond, label %11, label %13

11:                                               ; preds = %6
  %12 = tail call i32 @__itt_init_ittlib(ptr noundef null, i32 noundef -1)
  br label %13

13:                                               ; preds = %11, %6
  %14 = load ptr, ptr @__itt_metadata_add_ptr__3_0, align 8, !tbaa !20
  %15 = icmp ne ptr %14, null
  %16 = icmp ne ptr %14, @__itt_metadata_add_init_3_0
  %or.cond3 = and i1 %15, %16
  br i1 %or.cond3, label %17, label %18

17:                                               ; preds = %13
  tail call void %14(ptr noundef %0, ptr noundef nonnull byval(%struct.___itt_id) align 8 %1, ptr noundef %2, i32 noundef %3, i64 noundef %4, ptr noundef %5) #14
  br label %18

18:                                               ; preds = %13, %17
  ret void
}